target datalayout = "e-m:e-p270:32:32-p271:32:32-p272:64:64-i64:64-i128:128-f80:128-n8:16:32:64-S128"
target triple = "x86_64-pc-linux-gnu"

; Function Attrs: mustprogress nounwind uwtable
define internal noundef i32 @_ZL14alignment_maskIiTnNSt9enable_ifIXcvbsr3std11is_integralIT_EE5valueEiE4typeELi0EES1_S1_(i32 noundef %0) #1 {
  %2 = alloca i32, align 4
  store i32 %0, ptr %2, align 4
  %3 = load i32, ptr %2, align 4
  %4 = sub nsw i32 %3, 1
  ret i32 %4
}

; Function Attrs: mustprogress nounwind uwtable
define internal noundef i64 @_ZL14alignment_maskImTnNSt9enable_ifIXcvbsr3std11is_integralIT_EE5valueEiE4typeELi0EES1_S1_(i64 noundef %0) #1 {
  %2 = alloca i64, align 8
  store i64 %0, ptr %2, align 8
  %3 = load i64, ptr %2, align 8
  %4 = sub i64 %3, 1
  ret i64 %4
}

; Function Attrs: mustprogress nounwind uwtable
define linkonce_odr hidden noundef i32 @_Z11SafeFetch32Pii(ptr noundef %0, i32 noundef %1) #1 comdat {
  %3 = alloca ptr, align 8
  %4 = alloca i32, align 4
  store ptr %0, ptr %3, align 8
  store i32 %1, ptr %4, align 4
  %5 = load ptr, ptr %3, align 8
  %6 = load i32, ptr %4, align 4
  %7 = call i32 @SafeFetch32_impl(ptr noundef %5, i32 noundef %6)
  ret i32 %7
}

; Function Attrs: mustprogress nounwind uwtable
define linkonce_odr hidden noundef i64 @_Z10align_downIliTnNSt9enable_ifIXcvbsr3std11is_integralIT_EE5valueEiE4typeELi0EES1_S1_T0_(i64 noundef %0, i32 noundef %1) #1 comdat {
  %3 = alloca i64, align 8
  %4 = alloca i32, align 4
  %5 = alloca i64, align 8
  store i64 %0, ptr %3, align 8
  store i32 %1, ptr %4, align 4
  %6 = load i64, ptr %3, align 8
  %7 = load i32, ptr %4, align 4
  %8 = call noundef i32 @_ZL14alignment_maskIiTnNSt9enable_ifIXcvbsr3std11is_integralIT_EE5valueEiE4typeELi0EES1_S1_(i32 noundef %7)
  %9 = sext i32 %8 to i64
  %10 = xor i64 %9, -1
  %11 = and i64 %6, %10
  store i64 %11, ptr %5, align 8
  %12 = load i64, ptr %5, align 8
  ret i64 %12
}

; Function Attrs: mustprogress nounwind uwtable
define linkonce_odr hidden noundef zeroext i1 @_Z10is_alignedImmTnNSt9enable_ifIXcvbsr3std11is_integralIT_EE5valueEiE4typeELi0EEbS1_T0_(i64 noundef %0, i64 noundef %1) #1 comdat {
  %3 = alloca i64, align 8
  %4 = alloca i64, align 8
  store i64 %0, ptr %3, align 8
  store i64 %1, ptr %4, align 8
  %5 = load i64, ptr %3, align 8
  %6 = load i64, ptr %4, align 8
  %7 = call noundef i64 @_ZL14alignment_maskImTnNSt9enable_ifIXcvbsr3std11is_integralIT_EE5valueEiE4typeELi0EES1_S1_(i64 noundef %6)
  %8 = and i64 %5, %7
  %9 = icmp eq i64 %8, 0
  ret i1 %9
}

; Function Attrs: mustprogress nounwind uwtable
define hidden noundef zeroext i1 @_ZN2os19is_readable_pointerEPKv(ptr noundef %0) #1 align 2 {
  %2 = alloca ptr, align 8
  %3 = alloca ptr, align 8
  %4 = alloca i32, align 4
  %5 = alloca i32, align 4
  store ptr %0, ptr %2, align 8
  %6 = load ptr, ptr %2, align 8
  %7 = ptrtoint ptr %6 to i64
  %8 = call noundef i64 @_Z10align_downIliTnNSt9enable_ifIXcvbsr3std11is_integralIT_EE5valueEiE4typeELi0EES1_S1_T0_(i64 noundef %7, i32 noundef 4)
  %9 = inttoptr i64 %8 to ptr
  store ptr %9, ptr %3, align 8
  store i32 -889275714, ptr %4, align 4
  store i32 -559038737, ptr %5, align 4
  %10 = load ptr, ptr %3, align 8
  %11 = load i32, ptr %4, align 4
  %12 = call noundef i32 @_Z11SafeFetch32Pii(ptr noundef %10, i32 noundef %11)
  %13 = load i32, ptr %4, align 4
  %14 = icmp ne i32 %12, %13
  br i1 %14, label %21, label %15

15:                                               ; preds = %1
  %16 = load ptr, ptr %3, align 8
  %17 = load i32, ptr %5, align 4
  %18 = call noundef i32 @_Z11SafeFetch32Pii(ptr noundef %16, i32 noundef %17)
  %19 = load i32, ptr %5, align 4
  %20 = icmp ne i32 %18, %19
  br label %21

21:                                               ; preds = %15, %1
  %22 = phi i1 [ true, %1 ], [ %20, %15 ]
  ret i1 %22
}

; Function Attrs: mustprogress nounwind uwtable
define linkonce_odr hidden noundef zeroext i1 @_Z10is_alignedIlmEbPT_T0_(ptr noundef %0, i64 noundef %1) #1 comdat {
  %3 = alloca ptr, align 8
  %4 = alloca i64, align 8
  store ptr %0, ptr %3, align 8
  store i64 %1, ptr %4, align 8
  %5 = load ptr, ptr %3, align 8
  %6 = ptrtoint ptr %5 to i64
  %7 = load i64, ptr %4, align 8
  %8 = call noundef zeroext i1 @_Z10is_alignedImmTnNSt9enable_ifIXcvbsr3std11is_integralIT_EE5valueEiE4typeELi0EEbS1_T0_(i64 noundef %6, i64 noundef %7)
  ret i1 %8
}

; Function Attrs: mustprogress nounwind uwtable
define internal noundef zeroext i1 @_ZL14is_pointer_badPl(ptr noundef %0) #1 {
  %2 = alloca ptr, align 8
  store ptr %0, ptr %2, align 8
  %3 = load ptr, ptr %2, align 8
  %4 = call noundef zeroext i1 @_Z10is_alignedIlmEbPT_T0_(ptr noundef %3, i64 noundef 8)
  br i1 %4, label %5, label %9

5:                                                ; preds = %1
  %6 = load ptr, ptr %2, align 8
  %7 = call noundef zeroext i1 @_ZN2os19is_readable_pointerEPKv(ptr noundef %6)
  %8 = xor i1 %7, true
  br label %9

9:                                                ; preds = %5, %1
  %10 = phi i1 [ true, %1 ], [ %8, %5 ]
  ret i1 %10
}