; Function Attrs: mustprogress nounwind uwtable
define internal fastcc noundef zeroext i1 @_ZL14is_pointer_badPl(ptr noundef %0) unnamed_addr #3 {
  %2 = ptrtoint ptr %0 to i64
  %3 = and i64 %2, 7
  %4 = icmp eq i64 %3, 0
  br i1 %4, label %5, label %_ZN2os19is_readable_pointerEPKv.exit

5:                                                ; preds = %1
  %6 = tail call noundef i32 @SafeFetch32_impl(ptr noundef %0, i32 noundef -889275714) #28
  %.not.i = icmp eq i32 %6, -889275714
  br i1 %.not.i, label %7, label %_ZN2os19is_readable_pointerEPKv.exit

7:                                                ; preds = %5
  %8 = tail call noundef i32 @SafeFetch32_impl(ptr noundef %0, i32 noundef -559038737) #28
  %9 = icmp eq i32 %8, -559038737
  br label %_ZN2os19is_readable_pointerEPKv.exit

_ZN2os19is_readable_pointerEPKv.exit:             ; preds = %7, %5, %1
  %10 = phi i1 [ true, %1 ], [ false, %5 ], [ %9, %7 ]
  ret i1 %10
}